target datalayout = "e-m:e-p270:32:32-p271:32:32-p272:64:64-i64:64-i128:128-f80:128-n8:16:32:64-S128"
target triple = "x86_64-pc-linux-gnu"

%struct.OSQPCscMatrix = type { i64, i64, ptr, ptr, ptr, i64, i64 }

; Function Attrs: nounwind uwtable
define void @vec_set_scalar(ptr noundef %0, double noundef %1, i64 noundef %2) #0 {
  %4 = alloca ptr, align 8
  %5 = alloca double, align 8
  %6 = alloca i64, align 8
  %7 = alloca i64, align 8
  store ptr %0, ptr %4, align 8, !tbaa !3
  store double %1, ptr %5, align 8, !tbaa !8
  store i64 %2, ptr %6, align 8, !tbaa !10
  call void @llvm.lifetime.start.p0(i64 8, ptr %7) #3
  store i64 0, ptr %7, align 8, !tbaa !10
  br label %8

8:                                                ; preds = %17, %3
  %9 = load i64, ptr %7, align 8, !tbaa !10
  %10 = load i64, ptr %6, align 8, !tbaa !10
  %11 = icmp slt i64 %9, %10
  br i1 %11, label %12, label %20

12:                                               ; preds = %8
  %13 = load double, ptr %5, align 8, !tbaa !8
  %14 = load ptr, ptr %4, align 8, !tbaa !3
  %15 = load i64, ptr %7, align 8, !tbaa !10
  %16 = getelementptr inbounds double, ptr %14, i64 %15
  store double %13, ptr %16, align 8, !tbaa !8
  br label %17

17:                                               ; preds = %12
  %18 = load i64, ptr %7, align 8, !tbaa !10
  %19 = add nsw i64 %18, 1
  store i64 %19, ptr %7, align 8, !tbaa !10
  br label %8, !llvm.loop !12

20:                                               ; preds = %8
  call void @llvm.lifetime.end.p0(i64 8, ptr %7) #3
  ret void
}

; Function Attrs: nounwind uwtable
define void @csc_row_norm_inf(ptr noundef %0, ptr noundef %1) #0 {
  %3 = alloca ptr, align 8
  %4 = alloca ptr, align 8
  %5 = alloca i64, align 8
  %6 = alloca i64, align 8
  %7 = alloca i64, align 8
  %8 = alloca ptr, align 8
  %9 = alloca ptr, align 8
  %10 = alloca i64, align 8
  %11 = alloca i64, align 8
  %12 = alloca ptr, align 8
  store ptr %0, ptr %3, align 8, !tbaa !16
  store ptr %1, ptr %4, align 8, !tbaa !3
  call void @llvm.lifetime.start.p0(i64 8, ptr %5) #3
  call void @llvm.lifetime.start.p0(i64 8, ptr %6) #3
  call void @llvm.lifetime.start.p0(i64 8, ptr %7) #3
  call void @llvm.lifetime.start.p0(i64 8, ptr %8) #3
  %13 = load ptr, ptr %3, align 8, !tbaa !16
  %14 = getelementptr inbounds nuw %struct.OSQPCscMatrix, ptr %13, i32 0, i32 2
  %15 = load ptr, ptr %14, align 8, !tbaa !23
  store ptr %15, ptr %8, align 8, !tbaa !17
  call void @llvm.lifetime.start.p0(i64 8, ptr %9) #3
  %16 = load ptr, ptr %3, align 8, !tbaa !16
  %17 = getelementptr inbounds nuw %struct.OSQPCscMatrix, ptr %16, i32 0, i32 3
  %18 = load ptr, ptr %17, align 8, !tbaa !26
  store ptr %18, ptr %9, align 8, !tbaa !17
  call void @llvm.lifetime.start.p0(i64 8, ptr %10) #3
  %19 = load ptr, ptr %3, align 8, !tbaa !16
  %20 = getelementptr inbounds nuw %struct.OSQPCscMatrix, ptr %19, i32 0, i32 1
  %21 = load i64, ptr %20, align 8, !tbaa !24
  store i64 %21, ptr %10, align 8, !tbaa !10
  call void @llvm.lifetime.start.p0(i64 8, ptr %11) #3
  %22 = load ptr, ptr %3, align 8, !tbaa !16
  %23 = getelementptr inbounds nuw %struct.OSQPCscMatrix, ptr %22, i32 0, i32 0
  %24 = load i64, ptr %23, align 8, !tbaa !33
  store i64 %24, ptr %11, align 8, !tbaa !10
  call void @llvm.lifetime.start.p0(i64 8, ptr %12) #3
  %25 = load ptr, ptr %3, align 8, !tbaa !16
  %26 = getelementptr inbounds nuw %struct.OSQPCscMatrix, ptr %25, i32 0, i32 4
  %27 = load ptr, ptr %26, align 8, !tbaa !19
  store ptr %27, ptr %12, align 8, !tbaa !3
  %28 = load ptr, ptr %4, align 8, !tbaa !3
  %29 = load i64, ptr %11, align 8, !tbaa !10
  call void @vec_set_scalar(ptr noundef %28, double noundef 0.000000e+00, i64 noundef %29)
  store i64 0, ptr %6, align 8, !tbaa !10
  br label %30

30:                                               ; preds = %108, %2
  %31 = load i64, ptr %6, align 8, !tbaa !10
  %32 = load i64, ptr %10, align 8, !tbaa !10
  %33 = icmp slt i64 %31, %32
  br i1 %33, label %34, label %111

34:                                               ; preds = %30
  %35 = load ptr, ptr %8, align 8, !tbaa !17
  %36 = load i64, ptr %6, align 8, !tbaa !10
  %37 = getelementptr inbounds i64, ptr %35, i64 %36
  %38 = load i64, ptr %37, align 8, !tbaa !10
  store i64 %38, ptr %7, align 8, !tbaa !10
  br label %39

39:                                               ; preds = %104, %34
  %40 = load i64, ptr %7, align 8, !tbaa !10
  %41 = load ptr, ptr %8, align 8, !tbaa !17
  %42 = load i64, ptr %6, align 8, !tbaa !10
  %43 = add nsw i64 %42, 1
  %44 = getelementptr inbounds i64, ptr %41, i64 %43
  %45 = load i64, ptr %44, align 8, !tbaa !10
  %46 = icmp slt i64 %40, %45
  br i1 %46, label %47, label %107

47:                                               ; preds = %39
  %48 = load ptr, ptr %9, align 8, !tbaa !17
  %49 = load i64, ptr %7, align 8, !tbaa !10
  %50 = getelementptr inbounds i64, ptr %48, i64 %49
  %51 = load i64, ptr %50, align 8, !tbaa !10
  store i64 %51, ptr %5, align 8, !tbaa !10
  %52 = load ptr, ptr %12, align 8, !tbaa !3
  %53 = load i64, ptr %7, align 8, !tbaa !10
  %54 = getelementptr inbounds double, ptr %52, i64 %53
  %55 = load double, ptr %54, align 8, !tbaa !8
  %56 = fcmp olt double %55, 0.000000e+00
  br i1 %56, label %57, label %63

57:                                               ; preds = %47
  %58 = load ptr, ptr %12, align 8, !tbaa !3
  %59 = load i64, ptr %7, align 8, !tbaa !10
  %60 = getelementptr inbounds double, ptr %58, i64 %59
  %61 = load double, ptr %60, align 8, !tbaa !8
  %62 = fneg double %61
  br label %68

63:                                               ; preds = %47
  %64 = load ptr, ptr %12, align 8, !tbaa !3
  %65 = load i64, ptr %7, align 8, !tbaa !10
  %66 = getelementptr inbounds double, ptr %64, i64 %65
  %67 = load double, ptr %66, align 8, !tbaa !8
  br label %68

68:                                               ; preds = %63, %57
  %69 = phi double [ %62, %57 ], [ %67, %63 ]
  %70 = load ptr, ptr %4, align 8, !tbaa !3
  %71 = load i64, ptr %5, align 8, !tbaa !10
  %72 = getelementptr inbounds double, ptr %70, i64 %71
  %73 = load double, ptr %72, align 8, !tbaa !8
  %74 = fcmp ogt double %69, %73
  br i1 %74, label %75, label %94

75:                                               ; preds = %68
  %76 = load ptr, ptr %12, align 8, !tbaa !3
  %77 = load i64, ptr %7, align 8, !tbaa !10
  %78 = getelementptr inbounds double, ptr %76, i64 %77
  %79 = load double, ptr %78, align 8, !tbaa !8
  %80 = fcmp olt double %79, 0.000000e+00
  br i1 %80, label %81, label %87

81:                                               ; preds = %75
  %82 = load ptr, ptr %12, align 8, !tbaa !3
  %83 = load i64, ptr %7, align 8, !tbaa !10
  %84 = getelementptr inbounds double, ptr %82, i64 %83
  %85 = load double, ptr %84, align 8, !tbaa !8
  %86 = fneg double %85
  br label %92

87:                                               ; preds = %75
  %88 = load ptr, ptr %12, align 8, !tbaa !3
  %89 = load i64, ptr %7, align 8, !tbaa !10
  %90 = getelementptr inbounds double, ptr %88, i64 %89
  %91 = load double, ptr %90, align 8, !tbaa !8
  br label %92

92:                                               ; preds = %87, %81
  %93 = phi double [ %86, %81 ], [ %91, %87 ]
  br label %99

94:                                               ; preds = %68
  %95 = load ptr, ptr %4, align 8, !tbaa !3
  %96 = load i64, ptr %5, align 8, !tbaa !10
  %97 = getelementptr inbounds double, ptr %95, i64 %96
  %98 = load double, ptr %97, align 8, !tbaa !8
  br label %99

99:                                               ; preds = %94, %92
  %100 = phi double [ %93, %92 ], [ %98, %94 ]
  %101 = load ptr, ptr %4, align 8, !tbaa !3
  %102 = load i64, ptr %5, align 8, !tbaa !10
  %103 = getelementptr inbounds double, ptr %101, i64 %102
  store double %100, ptr %103, align 8, !tbaa !8
  br label %104

104:                                              ; preds = %99
  %105 = load i64, ptr %7, align 8, !tbaa !10
  %106 = add nsw i64 %105, 1
  store i64 %106, ptr %7, align 8, !tbaa !10
  br label %39, !llvm.loop !54

107:                                              ; preds = %39
  br label %108

108:                                              ; preds = %107
  %109 = load i64, ptr %6, align 8, !tbaa !10
  %110 = add nsw i64 %109, 1
  store i64 %110, ptr %6, align 8, !tbaa !10
  br label %30, !llvm.loop !55

111:                                              ; preds = %30
  call void @llvm.lifetime.end.p0(i64 8, ptr %12) #3
  call void @llvm.lifetime.end.p0(i64 8, ptr %11) #3
  call void @llvm.lifetime.end.p0(i64 8, ptr %10) #3
  call void @llvm.lifetime.end.p0(i64 8, ptr %9) #3
  call void @llvm.lifetime.end.p0(i64 8, ptr %8) #3
  call void @llvm.lifetime.end.p0(i64 8, ptr %7) #3
  call void @llvm.lifetime.end.p0(i64 8, ptr %6) #3
  call void @llvm.lifetime.end.p0(i64 8, ptr %5) #3
  ret void
}