; Function Attrs: nofree norecurse nosync nounwind memory(read, argmem: readwrite, inaccessiblemem: none) uwtable
define void @csc_row_norm_inf(ptr noundef readonly captures(none) %0, ptr noundef captures(none) %1) local_unnamed_addr #4 {
  %3 = getelementptr inbounds nuw i8, ptr %0, i64 16
  %4 = load ptr, ptr %3, align 8, !tbaa !20
  %5 = getelementptr inbounds nuw i8, ptr %0, i64 24
  %6 = load ptr, ptr %5, align 8, !tbaa !23
  %7 = getelementptr inbounds nuw i8, ptr %0, i64 8
  %8 = load i64, ptr %7, align 8, !tbaa !21
  %9 = load i64, ptr %0, align 8, !tbaa !30
  %10 = getelementptr inbounds nuw i8, ptr %0, i64 32
  %11 = load ptr, ptr %10, align 8, !tbaa !11
  %12 = icmp sgt i64 %9, 0
  br i1 %12, label %.lr.ph.i.preheader, label %vec_set_scalar.exit

.lr.ph.i.preheader:                               ; preds = %2
  %13 = shl nuw i64 %9, 3
  tail call void @llvm.memset.p0.i64(ptr align 8 %1, i8 0, i64 %13, i1 false), !tbaa !3
  br label %vec_set_scalar.exit

vec_set_scalar.exit:                              ; preds = %.lr.ph.i.preheader, %2
  %14 = icmp sgt i64 %8, 0
  br i1 %14, label %.lr.ph43.preheader, label %._crit_edge

.lr.ph43.preheader:                               ; preds = %vec_set_scalar.exit
  %.pre = load i64, ptr %4, align 8, !tbaa !17
  br label %.lr.ph43

.loopexit:                                        ; preds = %.lr.ph, %.lr.ph43
  %exitcond44.not = icmp eq i64 %16, %8
  br i1 %exitcond44.not, label %._crit_edge, label %.lr.ph43, !llvm.loop !51

.lr.ph43:                                         ; preds = %.lr.ph43.preheader, %.loopexit
  %15 = phi i64 [ %18, %.loopexit ], [ %.pre, %.lr.ph43.preheader ]
  %.042 = phi i64 [ %16, %.loopexit ], [ 0, %.lr.ph43.preheader ]
  %16 = add nuw nsw i64 %.042, 1
  %17 = getelementptr inbounds nuw i64, ptr %4, i64 %16
  %18 = load i64, ptr %17, align 8, !tbaa !17
  %19 = icmp slt i64 %15, %18
  br i1 %19, label %.lr.ph, label %.loopexit

.lr.ph:                                           ; preds = %.lr.ph43, %.lr.ph
  %.03541 = phi i64 [ %30, %.lr.ph ], [ %15, %.lr.ph43 ]
  %20 = getelementptr inbounds i64, ptr %6, i64 %.03541
  %21 = load i64, ptr %20, align 8, !tbaa !17
  %22 = getelementptr inbounds double, ptr %11, i64 %.03541
  %23 = load double, ptr %22, align 8, !tbaa !3
  %24 = fcmp uge double %23, 0.000000e+00
  %25 = fneg double %23
  %26 = select i1 %24, double %23, double %25
  %27 = getelementptr inbounds double, ptr %1, i64 %21
  %28 = load double, ptr %27, align 8, !tbaa !3
  %.inv = fcmp ogt double %26, %28
  %29 = select i1 %.inv, double %26, double %28
  store double %29, ptr %27, align 8, !tbaa !3
  %30 = add nsw i64 %.03541, 1
  %exitcond.not = icmp eq i64 %30, %18
  br i1 %exitcond.not, label %.loopexit, label %.lr.ph, !llvm.loop !52

._crit_edge:                                      ; preds = %.loopexit, %vec_set_scalar.exit
  ret void
}